; Function Attrs: mustprogress uwtable
define internal noundef nonnull ptr @_ZN7testing8internal15TestFactoryImplIN4absl19str_format_internal12_GLOBAL__N_145ConsumeUnboundConversionTest_ArgPosition_TestEE10CreateTestEv(ptr nonnull readnone align 8 captures(none) %0) unnamed_addr #4 align 2 personality ptr @__gxx_personality_v0 {
  %2 = tail call noalias noundef nonnull dereferenceable(32) ptr @_Znwm(i64 noundef 32) #25
  invoke void @_ZN7testing4TestC2Ev(ptr noundef nonnull align 8 dereferenceable(32) %2)
          to label %3 unwind label %9

3:                                                ; preds = %1
  %4 = getelementptr inbounds nuw i8, ptr %2, i64 20
  store i32 -1, ptr %4, align 4, !tbaa !103
  %5 = getelementptr inbounds nuw i8, ptr %2, i64 24
  store i32 -1, ptr %5, align 4, !tbaa !103
  %6 = getelementptr inbounds nuw i8, ptr %2, i64 28
  store i8 0, ptr %6, align 4, !tbaa !105
  %7 = getelementptr inbounds nuw i8, ptr %2, i64 29
  store i8 9, ptr %7, align 1, !tbaa !108
  %8 = getelementptr inbounds nuw i8, ptr %2, i64 30
  store i8 19, ptr %8, align 2, !tbaa !109
  store ptr getelementptr inbounds nuw inrange(-16, 48) (i8, ptr @_ZTVN4absl19str_format_internal12_GLOBAL__N_145ConsumeUnboundConversionTest_ArgPosition_TestE, i64 16), ptr %2, align 8, !tbaa !4
  ret ptr %2

9:                                                ; preds = %1
  %10 = landingpad { ptr, i32 }
          cleanup
  tail call void @_ZdlPvm(ptr noundef nonnull %2, i64 noundef 32) #24
  resume { ptr, i32 } %10
}